target datalayout = "e-m:e-p270:32:32-p271:32:32-p272:64:64-i64:64-i128:128-f80:128-n8:16:32:64-S128"
target triple = "x86_64-pc-linux-gnu"

%struct.mbedtls_sha256_context = type { [2 x i32], [8 x i32], [64 x i8], i32 }

; Function Attrs: mustprogress uwtable
define hidden void @mbedtls_sha256_free(ptr noundef %0) #2 {
  %2 = alloca ptr, align 8
  store ptr %0, ptr %2, align 8, !tbaa !3
  %3 = load ptr, ptr %2, align 8, !tbaa !3
  %4 = icmp eq ptr %3, null
  br i1 %4, label %5, label %6

5:                                                ; preds = %1
  br label %8

6:                                                ; preds = %1
  %7 = load ptr, ptr %2, align 8, !tbaa !3
  call void @mbedtls_platform_zeroize(ptr noundef %7, i64 noundef 108)
  br label %8

8:                                                ; preds = %6, %5
  ret void
}

; Function Attrs: mustprogress uwtable
define hidden i32 @mbedtls_sha256_update(ptr noundef %0, ptr noundef %1, i64 noundef %2) #2 {
  %4 = alloca i32, align 4
  %5 = alloca ptr, align 8
  %6 = alloca ptr, align 8
  %7 = alloca i64, align 8
  %8 = alloca i32, align 4
  %9 = alloca i64, align 8
  %10 = alloca i32, align 4
  %11 = alloca i32, align 4
  store ptr %0, ptr %5, align 8, !tbaa !3
  store ptr %1, ptr %6, align 8, !tbaa !14
  store i64 %2, ptr %7, align 8, !tbaa !25
  call void @llvm.lifetime.start.p0(i64 4, ptr %8) #6
  store i32 -110, ptr %8, align 4, !tbaa !10
  call void @llvm.lifetime.start.p0(i64 8, ptr %9) #6
  call void @llvm.lifetime.start.p0(i64 4, ptr %10) #6
  br label %12

12:                                               ; preds = %3
  br label %13

13:                                               ; preds = %12
  br label %14

14:                                               ; preds = %13
  br label %15

15:                                               ; preds = %14
  br label %16

16:                                               ; preds = %15
  br label %17

17:                                               ; preds = %16
  %18 = load i64, ptr %7, align 8, !tbaa !25
  %19 = icmp eq i64 %18, 0
  br i1 %19, label %20, label %21

20:                                               ; preds = %17
  store i32 0, ptr %4, align 4
  store i32 1, ptr %11, align 4
  br label %115

21:                                               ; preds = %17
  %22 = load ptr, ptr %5, align 8, !tbaa !3
  %23 = getelementptr inbounds nuw %struct.mbedtls_sha256_context, ptr %22, i32 0, i32 0
  %24 = getelementptr inbounds [2 x i32], ptr %23, i64 0, i64 0
  %25 = load i32, ptr %24, align 4, !tbaa !10
  %26 = and i32 %25, 63
  store i32 %26, ptr %10, align 4, !tbaa !10
  %27 = load i32, ptr %10, align 4, !tbaa !10
  %28 = sub i32 64, %27
  %29 = zext i32 %28 to i64
  store i64 %29, ptr %9, align 8, !tbaa !25
  %30 = load i64, ptr %7, align 8, !tbaa !25
  %31 = trunc i64 %30 to i32
  %32 = load ptr, ptr %5, align 8, !tbaa !3
  %33 = getelementptr inbounds nuw %struct.mbedtls_sha256_context, ptr %32, i32 0, i32 0
  %34 = getelementptr inbounds [2 x i32], ptr %33, i64 0, i64 0
  %35 = load i32, ptr %34, align 4, !tbaa !10
  %36 = add i32 %35, %31
  store i32 %36, ptr %34, align 4, !tbaa !10
  %37 = load ptr, ptr %5, align 8, !tbaa !3
  %38 = getelementptr inbounds nuw %struct.mbedtls_sha256_context, ptr %37, i32 0, i32 0
  %39 = getelementptr inbounds [2 x i32], ptr %38, i64 0, i64 0
  %40 = load i32, ptr %39, align 4, !tbaa !10
  %41 = and i32 %40, -1
  store i32 %41, ptr %39, align 4, !tbaa !10
  %42 = load ptr, ptr %5, align 8, !tbaa !3
  %43 = getelementptr inbounds nuw %struct.mbedtls_sha256_context, ptr %42, i32 0, i32 0
  %44 = getelementptr inbounds [2 x i32], ptr %43, i64 0, i64 0
  %45 = load i32, ptr %44, align 4, !tbaa !10
  %46 = load i64, ptr %7, align 8, !tbaa !25
  %47 = trunc i64 %46 to i32
  %48 = icmp ult i32 %45, %47
  br i1 %48, label %49, label %55

49:                                               ; preds = %21
  %50 = load ptr, ptr %5, align 8, !tbaa !3
  %51 = getelementptr inbounds nuw %struct.mbedtls_sha256_context, ptr %50, i32 0, i32 0
  %52 = getelementptr inbounds [2 x i32], ptr %51, i64 0, i64 1
  %53 = load i32, ptr %52, align 4, !tbaa !10
  %54 = add i32 %53, 1
  store i32 %54, ptr %52, align 4, !tbaa !10
  br label %55

55:                                               ; preds = %49, %21
  %56 = load i32, ptr %10, align 4, !tbaa !10
  %57 = icmp ne i32 %56, 0
  br i1 %57, label %58, label %86

58:                                               ; preds = %55
  %59 = load i64, ptr %7, align 8, !tbaa !25
  %60 = load i64, ptr %9, align 8, !tbaa !25
  %61 = icmp uge i64 %59, %60
  br i1 %61, label %62, label %86

62:                                               ; preds = %58
  %63 = load ptr, ptr %5, align 8, !tbaa !3
  %64 = getelementptr inbounds nuw %struct.mbedtls_sha256_context, ptr %63, i32 0, i32 2
  %65 = getelementptr inbounds [64 x i8], ptr %64, i64 0, i64 0
  %66 = load i32, ptr %10, align 4, !tbaa !10
  %67 = zext i32 %66 to i64
  %68 = getelementptr inbounds nuw i8, ptr %65, i64 %67
  %69 = load ptr, ptr %6, align 8, !tbaa !14
  %70 = load i64, ptr %9, align 8, !tbaa !25
  call void @llvm.memcpy.p0.p0.i64(ptr align 1 %68, ptr align 1 %69, i64 %70, i1 false)
  %71 = load ptr, ptr %5, align 8, !tbaa !3
  %72 = load ptr, ptr %5, align 8, !tbaa !3
  %73 = getelementptr inbounds nuw %struct.mbedtls_sha256_context, ptr %72, i32 0, i32 2
  %74 = getelementptr inbounds [64 x i8], ptr %73, i64 0, i64 0
  %75 = call i32 @mbedtls_internal_sha256_process(ptr noundef %71, ptr noundef %74)
  store i32 %75, ptr %8, align 4, !tbaa !10
  %76 = icmp ne i32 %75, 0
  br i1 %76, label %77, label %79

77:                                               ; preds = %62
  %78 = load i32, ptr %8, align 4, !tbaa !10
  store i32 %78, ptr %4, align 4
  store i32 1, ptr %11, align 4
  br label %115

79:                                               ; preds = %62
  %80 = load i64, ptr %9, align 8, !tbaa !25
  %81 = load ptr, ptr %6, align 8, !tbaa !14
  %82 = getelementptr inbounds nuw i8, ptr %81, i64 %80
  store ptr %82, ptr %6, align 8, !tbaa !14
  %83 = load i64, ptr %9, align 8, !tbaa !25
  %84 = load i64, ptr %7, align 8, !tbaa !25
  %85 = sub i64 %84, %83
  store i64 %85, ptr %7, align 8, !tbaa !25
  store i32 0, ptr %10, align 4, !tbaa !10
  br label %86

86:                                               ; preds = %79, %58, %55
  br label %87

87:                                               ; preds = %97, %86
  %88 = load i64, ptr %7, align 8, !tbaa !25
  %89 = icmp uge i64 %88, 64
  br i1 %89, label %90, label %102

90:                                               ; preds = %87
  %91 = load ptr, ptr %5, align 8, !tbaa !3
  %92 = load ptr, ptr %6, align 8, !tbaa !14
  %93 = call i32 @mbedtls_internal_sha256_process(ptr noundef %91, ptr noundef %92)
  store i32 %93, ptr %8, align 4, !tbaa !10
  %94 = icmp ne i32 %93, 0
  br i1 %94, label %95, label %97

95:                                               ; preds = %90
  %96 = load i32, ptr %8, align 4, !tbaa !10
  store i32 %96, ptr %4, align 4
  store i32 1, ptr %11, align 4
  br label %115

97:                                               ; preds = %90
  %98 = load ptr, ptr %6, align 8, !tbaa !14
  %99 = getelementptr inbounds i8, ptr %98, i64 64
  store ptr %99, ptr %6, align 8, !tbaa !14
  %100 = load i64, ptr %7, align 8, !tbaa !25
  %101 = sub i64 %100, 64
  store i64 %101, ptr %7, align 8, !tbaa !25
  br label %87, !llvm.loop !27

102:                                              ; preds = %87
  %103 = load i64, ptr %7, align 8, !tbaa !25
  %104 = icmp ugt i64 %103, 0
  br i1 %104, label %105, label %114

105:                                              ; preds = %102
  %106 = load ptr, ptr %5, align 8, !tbaa !3
  %107 = getelementptr inbounds nuw %struct.mbedtls_sha256_context, ptr %106, i32 0, i32 2
  %108 = getelementptr inbounds [64 x i8], ptr %107, i64 0, i64 0
  %109 = load i32, ptr %10, align 4, !tbaa !10
  %110 = zext i32 %109 to i64
  %111 = getelementptr inbounds nuw i8, ptr %108, i64 %110
  %112 = load ptr, ptr %6, align 8, !tbaa !14
  %113 = load i64, ptr %7, align 8, !tbaa !25
  call void @llvm.memcpy.p0.p0.i64(ptr align 1 %111, ptr align 1 %112, i64 %113, i1 false)
  br label %114

114:                                              ; preds = %105, %102
  store i32 0, ptr %4, align 4
  store i32 1, ptr %11, align 4
  br label %115

115:                                              ; preds = %114, %95, %77, %20
  call void @llvm.lifetime.end.p0(i64 4, ptr %10) #6
  call void @llvm.lifetime.end.p0(i64 8, ptr %9) #6
  call void @llvm.lifetime.end.p0(i64 4, ptr %8) #6
  %116 = load i32, ptr %4, align 4
  ret i32 %116
}

; Function Attrs: mustprogress nounwind uwtable
define hidden i32 @mbedtls_sha256_starts(ptr noundef %0, i32 noundef %1) #0 {
  %3 = alloca ptr, align 8
  %4 = alloca i32, align 4
  store ptr %0, ptr %3, align 8, !tbaa !3
  store i32 %1, ptr %4, align 4, !tbaa !10
  br label %5

5:                                                ; preds = %2
  br label %6

6:                                                ; preds = %5
  br label %7

7:                                                ; preds = %6
  br label %8

8:                                                ; preds = %7
  %9 = load ptr, ptr %3, align 8, !tbaa !3
  %10 = getelementptr inbounds nuw %struct.mbedtls_sha256_context, ptr %9, i32 0, i32 0
  %11 = getelementptr inbounds [2 x i32], ptr %10, i64 0, i64 0
  store i32 0, ptr %11, align 4, !tbaa !10
  %12 = load ptr, ptr %3, align 8, !tbaa !3
  %13 = getelementptr inbounds nuw %struct.mbedtls_sha256_context, ptr %12, i32 0, i32 0
  %14 = getelementptr inbounds [2 x i32], ptr %13, i64 0, i64 1
  store i32 0, ptr %14, align 4, !tbaa !10
  %15 = load i32, ptr %4, align 4, !tbaa !10
  %16 = icmp eq i32 %15, 0
  br i1 %16, label %17, label %42

17:                                               ; preds = %8
  %18 = load ptr, ptr %3, align 8, !tbaa !3
  %19 = getelementptr inbounds nuw %struct.mbedtls_sha256_context, ptr %18, i32 0, i32 1
  %20 = getelementptr inbounds [8 x i32], ptr %19, i64 0, i64 0
  store i32 1779033703, ptr %20, align 4, !tbaa !10
  %21 = load ptr, ptr %3, align 8, !tbaa !3
  %22 = getelementptr inbounds nuw %struct.mbedtls_sha256_context, ptr %21, i32 0, i32 1
  %23 = getelementptr inbounds [8 x i32], ptr %22, i64 0, i64 1
  store i32 -1150833019, ptr %23, align 4, !tbaa !10
  %24 = load ptr, ptr %3, align 8, !tbaa !3
  %25 = getelementptr inbounds nuw %struct.mbedtls_sha256_context, ptr %24, i32 0, i32 1
  %26 = getelementptr inbounds [8 x i32], ptr %25, i64 0, i64 2
  store i32 1013904242, ptr %26, align 4, !tbaa !10
  %27 = load ptr, ptr %3, align 8, !tbaa !3
  %28 = getelementptr inbounds nuw %struct.mbedtls_sha256_context, ptr %27, i32 0, i32 1
  %29 = getelementptr inbounds [8 x i32], ptr %28, i64 0, i64 3
  store i32 -1521486534, ptr %29, align 4, !tbaa !10
  %30 = load ptr, ptr %3, align 8, !tbaa !3
  %31 = getelementptr inbounds nuw %struct.mbedtls_sha256_context, ptr %30, i32 0, i32 1
  %32 = getelementptr inbounds [8 x i32], ptr %31, i64 0, i64 4
  store i32 1359893119, ptr %32, align 4, !tbaa !10
  %33 = load ptr, ptr %3, align 8, !tbaa !3
  %34 = getelementptr inbounds nuw %struct.mbedtls_sha256_context, ptr %33, i32 0, i32 1
  %35 = getelementptr inbounds [8 x i32], ptr %34, i64 0, i64 5
  store i32 -1694144372, ptr %35, align 4, !tbaa !10
  %36 = load ptr, ptr %3, align 8, !tbaa !3
  %37 = getelementptr inbounds nuw %struct.mbedtls_sha256_context, ptr %36, i32 0, i32 1
  %38 = getelementptr inbounds [8 x i32], ptr %37, i64 0, i64 6
  store i32 528734635, ptr %38, align 4, !tbaa !10
  %39 = load ptr, ptr %3, align 8, !tbaa !3
  %40 = getelementptr inbounds nuw %struct.mbedtls_sha256_context, ptr %39, i32 0, i32 1
  %41 = getelementptr inbounds [8 x i32], ptr %40, i64 0, i64 7
  store i32 1541459225, ptr %41, align 4, !tbaa !10
  br label %67

42:                                               ; preds = %8
  %43 = load ptr, ptr %3, align 8, !tbaa !3
  %44 = getelementptr inbounds nuw %struct.mbedtls_sha256_context, ptr %43, i32 0, i32 1
  %45 = getelementptr inbounds [8 x i32], ptr %44, i64 0, i64 0
  store i32 -1056596264, ptr %45, align 4, !tbaa !10
  %46 = load ptr, ptr %3, align 8, !tbaa !3
  %47 = getelementptr inbounds nuw %struct.mbedtls_sha256_context, ptr %46, i32 0, i32 1
  %48 = getelementptr inbounds [8 x i32], ptr %47, i64 0, i64 1
  store i32 914150663, ptr %48, align 4, !tbaa !10
  %49 = load ptr, ptr %3, align 8, !tbaa !3
  %50 = getelementptr inbounds nuw %struct.mbedtls_sha256_context, ptr %49, i32 0, i32 1
  %51 = getelementptr inbounds [8 x i32], ptr %50, i64 0, i64 2
  store i32 812702999, ptr %51, align 4, !tbaa !10
  %52 = load ptr, ptr %3, align 8, !tbaa !3
  %53 = getelementptr inbounds nuw %struct.mbedtls_sha256_context, ptr %52, i32 0, i32 1
  %54 = getelementptr inbounds [8 x i32], ptr %53, i64 0, i64 3
  store i32 -150054599, ptr %54, align 4, !tbaa !10
  %55 = load ptr, ptr %3, align 8, !tbaa !3
  %56 = getelementptr inbounds nuw %struct.mbedtls_sha256_context, ptr %55, i32 0, i32 1
  %57 = getelementptr inbounds [8 x i32], ptr %56, i64 0, i64 4
  store i32 -4191439, ptr %57, align 4, !tbaa !10
  %58 = load ptr, ptr %3, align 8, !tbaa !3
  %59 = getelementptr inbounds nuw %struct.mbedtls_sha256_context, ptr %58, i32 0, i32 1
  %60 = getelementptr inbounds [8 x i32], ptr %59, i64 0, i64 5
  store i32 1750603025, ptr %60, align 4, !tbaa !10
  %61 = load ptr, ptr %3, align 8, !tbaa !3
  %62 = getelementptr inbounds nuw %struct.mbedtls_sha256_context, ptr %61, i32 0, i32 1
  %63 = getelementptr inbounds [8 x i32], ptr %62, i64 0, i64 6
  store i32 1694076839, ptr %63, align 4, !tbaa !10
  %64 = load ptr, ptr %3, align 8, !tbaa !3
  %65 = getelementptr inbounds nuw %struct.mbedtls_sha256_context, ptr %64, i32 0, i32 1
  %66 = getelementptr inbounds [8 x i32], ptr %65, i64 0, i64 7
  store i32 -1090891868, ptr %66, align 4, !tbaa !10
  br label %67

67:                                               ; preds = %42, %17
  %68 = load i32, ptr %4, align 4, !tbaa !10
  %69 = load ptr, ptr %3, align 8, !tbaa !3
  %70 = getelementptr inbounds nuw %struct.mbedtls_sha256_context, ptr %69, i32 0, i32 3
  store i32 %68, ptr %70, align 4, !tbaa !12
  ret i32 0
}

; Function Attrs: mustprogress nounwind uwtable
define hidden void @mbedtls_sha256_init(ptr noundef %0) #0 {
  %2 = alloca ptr, align 8
  store ptr %0, ptr %2, align 8, !tbaa !3
  br label %3

3:                                                ; preds = %1
  br label %4

4:                                                ; preds = %3
  %5 = load ptr, ptr %2, align 8, !tbaa !3
  call void @llvm.memset.p0.i64(ptr align 4 %5, i8 0, i64 108, i1 false)
  ret void
}

; Function Attrs: mustprogress uwtable
define hidden i32 @mbedtls_sha256(ptr noundef %0, i64 noundef %1, ptr noundef %2, i32 noundef %3) #2 {
  %5 = alloca ptr, align 8
  %6 = alloca i64, align 8
  %7 = alloca ptr, align 8
  %8 = alloca i32, align 4
  %9 = alloca i32, align 4
  %10 = alloca %struct.mbedtls_sha256_context, align 4
  store ptr %0, ptr %5, align 8, !tbaa !14
  store i64 %1, ptr %6, align 8, !tbaa !25
  store ptr %2, ptr %7, align 8, !tbaa !14
  store i32 %3, ptr %8, align 4, !tbaa !10
  call void @llvm.lifetime.start.p0(i64 4, ptr %9) #6
  store i32 -110, ptr %9, align 4, !tbaa !10
  call void @llvm.lifetime.start.p0(i64 108, ptr %10) #6
  br label %11

11:                                               ; preds = %4
  br label %12

12:                                               ; preds = %11
  br label %13

13:                                               ; preds = %12
  br label %14

14:                                               ; preds = %13
  br label %15

15:                                               ; preds = %14
  br label %16

16:                                               ; preds = %15
  br label %17

17:                                               ; preds = %16
  br label %18

18:                                               ; preds = %17
  br label %19

19:                                               ; preds = %18
  call void @mbedtls_sha256_init(ptr noundef %10)
  %20 = load i32, ptr %8, align 4, !tbaa !10
  %21 = call i32 @mbedtls_sha256_starts(ptr noundef %10, i32 noundef %20)
  store i32 %21, ptr %9, align 4, !tbaa !10
  %22 = icmp ne i32 %21, 0
  br i1 %22, label %23, label %24

23:                                               ; preds = %19
  br label %36

24:                                               ; preds = %19
  %25 = load ptr, ptr %5, align 8, !tbaa !14
  %26 = load i64, ptr %6, align 8, !tbaa !25
  %27 = call i32 @mbedtls_sha256_update(ptr noundef %10, ptr noundef %25, i64 noundef %26)
  store i32 %27, ptr %9, align 4, !tbaa !10
  %28 = icmp ne i32 %27, 0
  br i1 %28, label %29, label %30

29:                                               ; preds = %24
  br label %36

30:                                               ; preds = %24
  %31 = load ptr, ptr %7, align 8, !tbaa !14
  %32 = call i32 @mbedtls_sha256_finish(ptr noundef %10, ptr noundef %31)
  store i32 %32, ptr %9, align 4, !tbaa !10
  %33 = icmp ne i32 %32, 0
  br i1 %33, label %34, label %35

34:                                               ; preds = %30
  br label %36

35:                                               ; preds = %30
  br label %36

36:                                               ; preds = %35, %34, %29, %23
  call void @mbedtls_sha256_free(ptr noundef %10)
  %37 = load i32, ptr %9, align 4, !tbaa !10
  call void @llvm.lifetime.end.p0(i64 108, ptr %10) #6
  call void @llvm.lifetime.end.p0(i64 4, ptr %9) #6
  ret i32 %37
}