; Function Attrs: mustprogress uwtable
define hidden noundef i32 @mbedtls_sha256(ptr noundef readonly captures(none) %0, i64 noundef %1, ptr noundef writeonly captures(none) %2, i32 noundef %3) local_unnamed_addr #2 {
  %5 = alloca %struct.mbedtls_sha256_context, align 4
  call void @llvm.lifetime.start.p0(i64 108, ptr nonnull %5) #8
  %6 = icmp eq i32 %3, 0
  call void @llvm.memset.p0.i64(ptr noundef nonnull align 4 dereferenceable(104) %5, i8 0, i64 104, i1 false)
  br i1 %6, label %mbedtls_sha256_starts.exit, label %7

7:                                                ; preds = %4
  br label %mbedtls_sha256_starts.exit

mbedtls_sha256_starts.exit:                       ; preds = %4, %7
  %.sink26.i = phi i32 [ -1056596264, %7 ], [ 1779033703, %4 ]
  %.sink25.i = phi i32 [ 914150663, %7 ], [ -1150833019, %4 ]
  %.sink24.i = phi i32 [ 812702999, %7 ], [ 1013904242, %4 ]
  %.sink23.i = phi i32 [ -150054599, %7 ], [ -1521486534, %4 ]
  %.sink22.i = phi i32 [ -4191439, %7 ], [ 1359893119, %4 ]
  %.sink21.i = phi i32 [ 1750603025, %7 ], [ -1694144372, %4 ]
  %.sink20.i = phi i32 [ 1694076839, %7 ], [ 528734635, %4 ]
  %.sink.i = phi i32 [ -1090891868, %7 ], [ 1541459225, %4 ]
  %8 = getelementptr inbounds nuw i8, ptr %5, i64 8
  store i32 %.sink26.i, ptr %8, align 4, !tbaa !7
  %9 = getelementptr inbounds nuw i8, ptr %5, i64 12
  store i32 %.sink25.i, ptr %9, align 4, !tbaa !7
  %10 = getelementptr inbounds nuw i8, ptr %5, i64 16
  store i32 %.sink24.i, ptr %10, align 4, !tbaa !7
  %11 = getelementptr inbounds nuw i8, ptr %5, i64 20
  store i32 %.sink23.i, ptr %11, align 4, !tbaa !7
  %12 = getelementptr inbounds nuw i8, ptr %5, i64 24
  store i32 %.sink22.i, ptr %12, align 4, !tbaa !7
  %13 = getelementptr inbounds nuw i8, ptr %5, i64 28
  store i32 %.sink21.i, ptr %13, align 4, !tbaa !7
  %14 = getelementptr inbounds nuw i8, ptr %5, i64 32
  store i32 %.sink20.i, ptr %14, align 4, !tbaa !7
  %15 = getelementptr inbounds nuw i8, ptr %5, i64 36
  store i32 %.sink.i, ptr %15, align 4, !tbaa !7
  %16 = getelementptr inbounds nuw i8, ptr %5, i64 104
  store i32 %3, ptr %16, align 4, !tbaa !9
  %17 = icmp eq i64 %1, 0
  br i1 %17, label %mbedtls_sha256_update.exit, label %18

18:                                               ; preds = %mbedtls_sha256_starts.exit
  %19 = trunc i64 %1 to i32
  store i32 %19, ptr %5, align 4, !tbaa !7
  %20 = icmp ugt i64 %1, 63
  br i1 %20, label %.lr.ph.i, label %._crit_edge.thread.i

.lr.ph.i:                                         ; preds = %18, %.lr.ph.i
  %.147.i = phi i64 [ %23, %.lr.ph.i ], [ %1, %18 ]
  %.13746.i = phi ptr [ %22, %.lr.ph.i ], [ %0, %18 ]
  %21 = call i32 @mbedtls_internal_sha256_process(ptr noundef nonnull %5, ptr noundef %.13746.i)
  %22 = getelementptr inbounds nuw i8, ptr %.13746.i, i64 64
  %23 = add i64 %.147.i, -64
  %24 = icmp ugt i64 %23, 63
  br i1 %24, label %.lr.ph.i, label %._crit_edge.i, !llvm.loop !19

._crit_edge.i:                                    ; preds = %.lr.ph.i
  %.not45.i = icmp eq i64 %23, 0
  br i1 %.not45.i, label %mbedtls_sha256_update.exit, label %._crit_edge.thread.i

._crit_edge.thread.i:                             ; preds = %18, %._crit_edge.i
  %.1.lcssa.i10 = phi i64 [ %23, %._crit_edge.i ], [ %1, %18 ]
  %.137.lcssa.i9 = phi ptr [ %22, %._crit_edge.i ], [ %0, %18 ]
  %25 = getelementptr inbounds nuw i8, ptr %5, i64 40
  call void @llvm.memcpy.p0.p0.i64(ptr nonnull align 4 %25, ptr align 1 %.137.lcssa.i9, i64 %.1.lcssa.i10, i1 false)
  br label %mbedtls_sha256_update.exit

mbedtls_sha256_update.exit:                       ; preds = %mbedtls_sha256_starts.exit, %._crit_edge.i, %._crit_edge.thread.i
  %26 = call i32 @mbedtls_sha256_finish(ptr noundef nonnull %5, ptr noundef %2)
  call void @mbedtls_platform_zeroize(ptr noundef nonnull %5, i64 noundef 108)
  call void @llvm.lifetime.end.p0(i64 108, ptr nonnull %5) #8
  ret i32 0
}